target datalayout = "e-m:e-p270:32:32-p271:32:32-p272:64:64-i64:64-i128:128-f80:128-n8:16:32:64-S128"
target triple = "x86_64-pc-linux-gnu"

%struct.Gia_Man_t_ = type { ptr, ptr, i32, i32, i32, i32, ptr, ptr, i32, i32, i32, ptr, ptr, %struct.Vec_Int_t_, %struct.Vec_Int_t_, i32, i32, i32, %struct.Vec_Int_t_, ptr, ptr, ptr, i32, i32, i32, i32, ptr, ptr, ptr, ptr, ptr, i32, i32, ptr, i32, ptr, ptr, ptr, ptr, ptr, ptr, ptr, ptr, ptr, ptr, ptr, ptr, ptr, ptr, ptr, ptr, ptr, ptr, %struct.Vec_Int_t_, %struct.Vec_Int_t_, ptr, ptr, ptr, ptr, ptr, ptr, ptr, ptr, ptr, ptr, ptr, ptr, ptr, ptr, ptr, ptr, ptr, ptr, ptr, ptr, ptr, i32, float, float, ptr, ptr, i32, ptr, ptr, ptr, ptr, ptr, ptr, ptr, ptr, ptr, ptr, ptr, ptr, ptr, ptr, ptr, i64, i64, ptr, ptr, i32, i32, i32, i32, i32, i32, i32, i32, i32, i32, i32, i32, ptr, ptr, ptr, ptr, ptr, ptr, ptr, ptr, i32, i32, i32, ptr, i32, i32, ptr, ptr, ptr, ptr, ptr, ptr, i32, i32, ptr, %struct.Vec_Int_t_, %struct.Vec_Int_t_, %struct.Vec_Int_t_, ptr, ptr, ptr, i32, i32, i32, i32, ptr, ptr, ptr, ptr, ptr }
%struct.Vec_Int_t_ = type { i32, i32, ptr }
%struct.Vec_Wrd_t_ = type { i32, i32, ptr }

@s_Truth6 = internal global [6 x i64] [i64 -6148914691236517206, i64 -3689348814741910324, i64 -1085102592571150096, i64 -71777214294589696, i64 -281470681808896, i64 -4294967296], align 16

; Function Attrs: inlinehint nounwind uwtable
define internal void @Vec_WrdWriteEntry(ptr noundef %0, i32 noundef %1, i64 noundef %2) #2 {
  %4 = alloca ptr, align 8
  %5 = alloca i32, align 4
  %6 = alloca i64, align 8
  store ptr %0, ptr %4, align 8, !tbaa !45
  store i32 %1, ptr %5, align 4, !tbaa !8
  store i64 %2, ptr %6, align 8, !tbaa !12
  %7 = load i64, ptr %6, align 8, !tbaa !12
  %8 = load ptr, ptr %4, align 8, !tbaa !45
  %9 = getelementptr inbounds nuw %struct.Vec_Wrd_t_, ptr %8, i32 0, i32 2
  %10 = load ptr, ptr %9, align 8, !tbaa !48
  %11 = load i32, ptr %5, align 4, !tbaa !8
  %12 = sext i32 %11 to i64
  %13 = getelementptr inbounds i64, ptr %10, i64 %12
  store i64 %7, ptr %13, align 8, !tbaa !12
  ret void
}

; Function Attrs: inlinehint nounwind uwtable
define internal void @Gia_ObjSetTravIdCurrentId(ptr noundef %0, i32 noundef %1) #2 {
  %3 = alloca ptr, align 8
  %4 = alloca i32, align 4
  store ptr %0, ptr %3, align 8, !tbaa !3
  store i32 %1, ptr %4, align 4, !tbaa !8
  %5 = load ptr, ptr %3, align 8, !tbaa !3
  %6 = getelementptr inbounds nuw %struct.Gia_Man_t_, ptr %5, i32 0, i32 24
  %7 = load i32, ptr %6, align 8, !tbaa !47
  %8 = load ptr, ptr %3, align 8, !tbaa !3
  %9 = getelementptr inbounds nuw %struct.Gia_Man_t_, ptr %8, i32 0, i32 80
  %10 = load ptr, ptr %9, align 8, !tbaa !46
  %11 = load i32, ptr %4, align 4, !tbaa !8
  %12 = sext i32 %11 to i64
  %13 = getelementptr inbounds i32, ptr %10, i64 %12
  store i32 %7, ptr %13, align 4, !tbaa !8
  ret void
}

; Function Attrs: inlinehint nounwind uwtable
define internal i32 @Vec_IntEntry(ptr noundef %0, i32 noundef %1) #2 {
  %3 = alloca ptr, align 8
  %4 = alloca i32, align 4
  store ptr %0, ptr %3, align 8, !tbaa !32
  store i32 %1, ptr %4, align 4, !tbaa !8
  %5 = load ptr, ptr %3, align 8, !tbaa !32
  %6 = getelementptr inbounds nuw %struct.Vec_Int_t_, ptr %5, i32 0, i32 2
  %7 = load ptr, ptr %6, align 8, !tbaa !33
  %8 = load i32, ptr %4, align 4, !tbaa !8
  %9 = sext i32 %8 to i64
  %10 = getelementptr inbounds i32, ptr %7, i64 %9
  %11 = load i32, ptr %10, align 4, !tbaa !8
  ret i32 %11
}

; Function Attrs: inlinehint nounwind uwtable
define internal i64 @Vec_WrdEntry(ptr noundef %0, i32 noundef %1) #2 {
  %3 = alloca ptr, align 8
  %4 = alloca i32, align 4
  store ptr %0, ptr %3, align 8, !tbaa !45
  store i32 %1, ptr %4, align 4, !tbaa !8
  %5 = load ptr, ptr %3, align 8, !tbaa !45
  %6 = getelementptr inbounds nuw %struct.Vec_Wrd_t_, ptr %5, i32 0, i32 2
  %7 = load ptr, ptr %6, align 8, !tbaa !48
  %8 = load i32, ptr %4, align 4, !tbaa !8
  %9 = sext i32 %8 to i64
  %10 = getelementptr inbounds i64, ptr %7, i64 %9
  %11 = load i64, ptr %10, align 8, !tbaa !12
  ret i64 %11
}

; Function Attrs: nounwind uwtable
define i64 @Gia_ObjComputeTruth6(ptr noundef %0, i32 noundef %1, ptr noundef %2, ptr noundef %3) #0 {
  %5 = alloca ptr, align 8
  %6 = alloca i32, align 4
  %7 = alloca ptr, align 8
  %8 = alloca ptr, align 8
  %9 = alloca i32, align 4
  %10 = alloca i32, align 4
  store ptr %0, ptr %5, align 8, !tbaa !3
  store i32 %1, ptr %6, align 4, !tbaa !8
  store ptr %2, ptr %7, align 8, !tbaa !32
  store ptr %3, ptr %8, align 8, !tbaa !45
  call void @llvm.lifetime.start.p0(i64 4, ptr %9) #13
  call void @llvm.lifetime.start.p0(i64 4, ptr %10) #13
  %11 = load ptr, ptr %5, align 8, !tbaa !3
  call void @Gia_ManIncrementTravId(ptr noundef %11)
  store i32 0, ptr %9, align 4, !tbaa !8
  br label %12

12:                                               ; preds = %32, %4
  %13 = load i32, ptr %9, align 4, !tbaa !8
  %14 = load ptr, ptr %7, align 8, !tbaa !32
  %15 = call i32 @Vec_IntSize(ptr noundef %14)
  %16 = icmp slt i32 %13, %15
  br i1 %16, label %17, label %21

17:                                               ; preds = %12
  %18 = load ptr, ptr %7, align 8, !tbaa !32
  %19 = load i32, ptr %9, align 4, !tbaa !8
  %20 = call i32 @Vec_IntEntry(ptr noundef %18, i32 noundef %19)
  store i32 %20, ptr %10, align 4, !tbaa !8
  br label %21

21:                                               ; preds = %17, %12
  %22 = phi i1 [ false, %12 ], [ true, %17 ]
  br i1 %22, label %23, label %35

23:                                               ; preds = %21
  %24 = load ptr, ptr %5, align 8, !tbaa !3
  %25 = load i32, ptr %10, align 4, !tbaa !8
  call void @Gia_ObjSetTravIdCurrentId(ptr noundef %24, i32 noundef %25)
  %26 = load ptr, ptr %8, align 8, !tbaa !45
  %27 = load i32, ptr %10, align 4, !tbaa !8
  %28 = load i32, ptr %9, align 4, !tbaa !8
  %29 = sext i32 %28 to i64
  %30 = getelementptr inbounds [6 x i64], ptr @s_Truth6, i64 0, i64 %29
  %31 = load i64, ptr %30, align 8, !tbaa !12
  call void @Vec_WrdWriteEntry(ptr noundef %26, i32 noundef %27, i64 noundef %31)
  br label %32

32:                                               ; preds = %23
  %33 = load i32, ptr %9, align 4, !tbaa !8
  %34 = add nsw i32 %33, 1
  store i32 %34, ptr %9, align 4, !tbaa !8
  br label %12, !llvm.loop !54

35:                                               ; preds = %21
  %36 = load ptr, ptr %5, align 8, !tbaa !3
  %37 = load i32, ptr %6, align 4, !tbaa !8
  %38 = load ptr, ptr %8, align 8, !tbaa !45
  call void @Gia_ObjComputeTruthTable6Lut_rec(ptr noundef %36, i32 noundef %37, ptr noundef %38)
  %39 = load ptr, ptr %8, align 8, !tbaa !45
  %40 = load i32, ptr %6, align 4, !tbaa !8
  %41 = call i64 @Vec_WrdEntry(ptr noundef %39, i32 noundef %40)
  call void @llvm.lifetime.end.p0(i64 4, ptr %10) #13
  call void @llvm.lifetime.end.p0(i64 4, ptr %9) #13
  ret i64 %41
}

; Function Attrs: inlinehint nounwind uwtable
define internal i32 @Vec_IntSize(ptr noundef %0) #2 {
  %2 = alloca ptr, align 8
  store ptr %0, ptr %2, align 8, !tbaa !32
  %3 = load ptr, ptr %2, align 8, !tbaa !32
  %4 = getelementptr inbounds nuw %struct.Vec_Int_t_, ptr %3, i32 0, i32 1
  %5 = load i32, ptr %4, align 4, !tbaa !42
  ret i32 %5
}

; Function Attrs: inlinehint nounwind uwtable
define internal i32 @Abc_LitIsCompl(i32 noundef %0) #2 {
  %2 = alloca i32, align 4
  store i32 %0, ptr %2, align 4, !tbaa !8
  %3 = load i32, ptr %2, align 4, !tbaa !8
  %4 = and i32 %3, 1
  ret i32 %4
}

; Function Attrs: inlinehint nounwind uwtable
define internal void @Vec_IntClear(ptr noundef %0) #2 {
  %2 = alloca ptr, align 8
  store ptr %0, ptr %2, align 8, !tbaa !32
  %3 = load ptr, ptr %2, align 8, !tbaa !32
  %4 = getelementptr inbounds nuw %struct.Vec_Int_t_, ptr %3, i32 0, i32 1
  store i32 0, ptr %4, align 4, !tbaa !42
  ret void
}

; Function Attrs: inlinehint nounwind uwtable
define internal i32 @Abc_Lit2Var(i32 noundef %0) #2 {
  %2 = alloca i32, align 4
  store i32 %0, ptr %2, align 4, !tbaa !8
  %3 = load i32, ptr %2, align 4, !tbaa !8
  %4 = ashr i32 %3, 1
  ret i32 %4
}

; Function Attrs: nounwind uwtable
define i64 @Gia_ObjComputeTruth6Cis(ptr noundef %0, i32 noundef %1, ptr noundef %2, ptr noundef %3) #0 {
  %5 = alloca i64, align 8
  %6 = alloca ptr, align 8
  %7 = alloca i32, align 4
  %8 = alloca ptr, align 8
  %9 = alloca ptr, align 8
  %10 = alloca i32, align 4
  %11 = alloca i32, align 4
  store ptr %0, ptr %6, align 8, !tbaa !3
  store i32 %1, ptr %7, align 4, !tbaa !8
  store ptr %2, ptr %8, align 8, !tbaa !32
  store ptr %3, ptr %9, align 8, !tbaa !45
  call void @llvm.lifetime.start.p0(i64 4, ptr %10) #13
  %12 = load i32, ptr %7, align 4, !tbaa !8
  %13 = call i32 @Abc_Lit2Var(i32 noundef %12)
  store i32 %13, ptr %10, align 4, !tbaa !8
  %14 = load ptr, ptr %8, align 8, !tbaa !32
  call void @Vec_IntClear(ptr noundef %14)
  %15 = load i32, ptr %10, align 4, !tbaa !8
  %16 = icmp ne i32 %15, 0
  br i1 %16, label %22, label %17

17:                                               ; preds = %4
  %18 = load i32, ptr %7, align 4, !tbaa !8
  %19 = call i32 @Abc_LitIsCompl(i32 noundef %18)
  %20 = icmp ne i32 %19, 0
  %21 = select i1 %20, i64 -1, i64 0
  store i64 %21, ptr %5, align 8
  store i32 1, ptr %11, align 4
  br label %51

22:                                               ; preds = %4
  %23 = load ptr, ptr %6, align 8, !tbaa !3
  call void @Gia_ManIncrementTravId(ptr noundef %23)
  %24 = load ptr, ptr %6, align 8, !tbaa !3
  %25 = load i32, ptr %10, align 4, !tbaa !8
  %26 = load ptr, ptr %8, align 8, !tbaa !32
  call void @Gia_ObjComputeTruth6CisSupport_rec(ptr noundef %24, i32 noundef %25, ptr noundef %26)
  %27 = load ptr, ptr %8, align 8, !tbaa !32
  %28 = call i32 @Vec_IntSize(ptr noundef %27)
  %29 = icmp sgt i32 %28, 6
  br i1 %29, label %30, label %31

30:                                               ; preds = %22
  store i64 0, ptr %5, align 8
  store i32 1, ptr %11, align 4
  br label %51

31:                                               ; preds = %22
  %32 = load ptr, ptr %6, align 8, !tbaa !3
  %33 = load i32, ptr %10, align 4, !tbaa !8
  %34 = load ptr, ptr %8, align 8, !tbaa !32
  %35 = load ptr, ptr %9, align 8, !tbaa !45
  %36 = call i64 @Gia_ObjComputeTruth6(ptr noundef %32, i32 noundef %33, ptr noundef %34, ptr noundef %35)
  %37 = load i32, ptr %7, align 4, !tbaa !8
  %38 = call i32 @Abc_LitIsCompl(i32 noundef %37)
  %39 = icmp ne i32 %38, 0
  br i1 %39, label %40, label %45

40:                                               ; preds = %31
  %41 = load ptr, ptr %9, align 8, !tbaa !45
  %42 = load i32, ptr %10, align 4, !tbaa !8
  %43 = call i64 @Vec_WrdEntry(ptr noundef %41, i32 noundef %42)
  %44 = xor i64 %43, -1
  br label %49

45:                                               ; preds = %31
  %46 = load ptr, ptr %9, align 8, !tbaa !45
  %47 = load i32, ptr %10, align 4, !tbaa !8
  %48 = call i64 @Vec_WrdEntry(ptr noundef %46, i32 noundef %47)
  br label %49

49:                                               ; preds = %45, %40
  %50 = phi i64 [ %44, %40 ], [ %48, %45 ]
  store i64 %50, ptr %5, align 8
  store i32 1, ptr %11, align 4
  br label %51

51:                                               ; preds = %49, %30, %17
  call void @llvm.lifetime.end.p0(i64 4, ptr %10) #13
  %52 = load i64, ptr %5, align 8
  ret i64 %52
}