; Function Attrs: nounwind uwtable
define i64 @Gia_ObjComputeTruth6Cis(ptr noundef %0, i32 noundef %1, ptr noundef captures(none) initializes((4, 8)) %2, ptr noundef %3) local_unnamed_addr #2 {
  %5 = ashr i32 %1, 1
  %6 = getelementptr inbounds nuw i8, ptr %2, i64 4
  store i32 0, ptr %6, align 4, !tbaa !36
  %.not = icmp ult i32 %1, 2
  br i1 %.not, label %7, label %9

7:                                                ; preds = %4
  %sext = sub nsw i32 0, %1
  %8 = sext i32 %sext to i64
  br label %33

9:                                                ; preds = %4
  tail call void @Gia_ManIncrementTravId(ptr noundef %0) #23
  tail call void @Gia_ObjComputeTruth6CisSupport_rec(ptr noundef %0, i32 noundef %5, ptr noundef nonnull %2)
  %.val = load i32, ptr %6, align 4, !tbaa !36
  %10 = icmp sgt i32 %.val, 6
  br i1 %10, label %33, label %11

11:                                               ; preds = %9
  tail call void @Gia_ManIncrementTravId(ptr noundef %0) #23
  %.val1520.i = load i32, ptr %6, align 4, !tbaa !36
  %12 = icmp sgt i32 %.val1520.i, 0
  br i1 %12, label %.lr.ph.i, label %Gia_ObjComputeTruth6.exit

.lr.ph.i:                                         ; preds = %11
  %13 = getelementptr i8, ptr %2, i64 8
  %.val.i = load ptr, ptr %13, align 8, !tbaa !30
  %14 = getelementptr i8, ptr %0, i64 176
  %15 = getelementptr i8, ptr %0, i64 616
  %.val18.i = load ptr, ptr %15, align 8, !tbaa !43
  %16 = getelementptr i8, ptr %3, i64 8
  %.val19.i = load ptr, ptr %16, align 8, !tbaa !44
  %.val17.pre.i = load i32, ptr %14, align 8, !tbaa !42
  br label %17

17:                                               ; preds = %17, %.lr.ph.i
  %indvars.iv.i = phi i64 [ 0, %.lr.ph.i ], [ %indvars.iv.next.i, %17 ]
  %18 = getelementptr inbounds nuw i32, ptr %.val.i, i64 %indvars.iv.i
  %19 = load i32, ptr %18, align 4, !tbaa !31
  %20 = sext i32 %19 to i64
  %21 = getelementptr inbounds i32, ptr %.val18.i, i64 %20
  store i32 %.val17.pre.i, ptr %21, align 4, !tbaa !31
  %22 = getelementptr inbounds nuw [6 x i64], ptr @s_Truth6, i64 0, i64 %indvars.iv.i
  %23 = load i64, ptr %22, align 8, !tbaa !28
  %24 = getelementptr inbounds i64, ptr %.val19.i, i64 %20
  store i64 %23, ptr %24, align 8, !tbaa !28
  %indvars.iv.next.i = add nuw nsw i64 %indvars.iv.i, 1
  %.val15.i = load i32, ptr %6, align 4, !tbaa !36
  %25 = sext i32 %.val15.i to i64
  %26 = icmp slt i64 %indvars.iv.next.i, %25
  br i1 %26, label %17, label %Gia_ObjComputeTruth6.exit, !llvm.loop !50

Gia_ObjComputeTruth6.exit:                        ; preds = %17, %11
  tail call void @Gia_ObjComputeTruthTable6Lut_rec(ptr noundef %0, i32 noundef %5, ptr noundef %3)
  %27 = getelementptr i8, ptr %3, i64 8
  %.val16.i = load ptr, ptr %27, align 8, !tbaa !44
  %28 = sext i32 %5 to i64
  %29 = getelementptr inbounds i64, ptr %.val16.i, i64 %28
  %30 = load i64, ptr %29, align 8, !tbaa !28
  %31 = and i32 %1, 1
  %sext23 = sub nsw i32 0, %31
  %32 = sext i32 %sext23 to i64
  %spec.select = xor i64 %30, %32
  br label %33

33:                                               ; preds = %Gia_ObjComputeTruth6.exit, %9, %7
  %.0 = phi i64 [ %8, %7 ], [ 0, %9 ], [ %spec.select, %Gia_ObjComputeTruth6.exit ]
  ret i64 %.0
}